target datalayout = "e-m:e-p270:32:32-p271:32:32-p272:64:64-i64:64-i128:128-f80:128-n8:16:32:64-S128"
target triple = "x86_64-pc-linux-gnu"

%struct.AVComplexDouble = type { double, double }
%struct.AVTXContext = type { i32, i32, ptr, ptr, ptr, ptr, [4 x ptr], i32, [4 x ptr], ptr, i32, i64, i32, float, double, ptr }

; Function Attrs: nounwind uwtable
define i32 @ff_tx_mdct_gen_exp_double(ptr noundef %0, ptr noundef %1) #4 {
  %3 = alloca i32, align 4
  %4 = alloca ptr, align 8
  %5 = alloca ptr, align 8
  %6 = alloca i32, align 4
  %7 = alloca i32, align 4
  %8 = alloca double, align 8
  %9 = alloca double, align 8
  %10 = alloca i64, align 8
  %11 = alloca i32, align 4
  %12 = alloca i32, align 4
  %13 = alloca double, align 8
  %14 = alloca %struct.AVComplexDouble, align 8
  %15 = alloca i32, align 4
  store ptr %0, ptr %4, align 8, !tbaa !17
  store ptr %1, ptr %5, align 8, !tbaa !19
  call void @llvm.lifetime.start.p0(i64 4, ptr %6) #10
  store i32 0, ptr %6, align 4, !tbaa !4
  call void @llvm.lifetime.start.p0(i64 4, ptr %7) #10
  %16 = load ptr, ptr %4, align 8, !tbaa !17
  %17 = getelementptr inbounds nuw %struct.AVTXContext, ptr %16, i32 0, i32 0
  %18 = load i32, ptr %17, align 8, !tbaa !21
  %19 = ashr i32 %18, 1
  store i32 %19, ptr %7, align 4, !tbaa !4
  call void @llvm.lifetime.start.p0(i64 8, ptr %8) #10
  %20 = load ptr, ptr %4, align 8, !tbaa !17
  %21 = getelementptr inbounds nuw %struct.AVTXContext, ptr %20, i32 0, i32 14
  %22 = load double, ptr %21, align 8, !tbaa !28
  store double %22, ptr %8, align 8, !tbaa !29
  call void @llvm.lifetime.start.p0(i64 8, ptr %9) #10
  %23 = load double, ptr %8, align 8, !tbaa !29
  %24 = fcmp nsz olt double %23, 0.000000e+00
  br i1 %24, label %25, label %27

25:                                               ; preds = %2
  %26 = load i32, ptr %7, align 4, !tbaa !4
  br label %28

27:                                               ; preds = %2
  br label %28

28:                                               ; preds = %27, %25
  %29 = phi i32 [ %26, %25 ], [ 0, %27 ]
  %30 = sitofp i32 %29 to double
  %31 = fadd nsz double %30, 1.250000e-01
  store double %31, ptr %9, align 8, !tbaa !29
  call void @llvm.lifetime.start.p0(i64 8, ptr %10) #10
  %32 = load ptr, ptr %5, align 8, !tbaa !19
  %33 = icmp ne ptr %32, null
  br i1 %33, label %34, label %37

34:                                               ; preds = %28
  %35 = load i32, ptr %7, align 4, !tbaa !4
  %36 = mul nsw i32 2, %35
  br label %39

37:                                               ; preds = %28
  %38 = load i32, ptr %7, align 4, !tbaa !4
  br label %39

39:                                               ; preds = %37, %34
  %40 = phi i32 [ %36, %34 ], [ %38, %37 ]
  %41 = sext i32 %40 to i64
  store i64 %41, ptr %10, align 8, !tbaa !30
  %42 = load i64, ptr %10, align 8, !tbaa !30
  %43 = call ptr @av_malloc_array(i64 noundef %42, i64 noundef 16)
  %44 = load ptr, ptr %4, align 8, !tbaa !17
  %45 = getelementptr inbounds nuw %struct.AVTXContext, ptr %44, i32 0, i32 3
  store ptr %43, ptr %45, align 8, !tbaa !31
  %46 = icmp ne ptr %43, null
  br i1 %46, label %48, label %47

47:                                               ; preds = %39
  store i32 -12, ptr %3, align 4
  store i32 1, ptr %11, align 4
  br label %125

48:                                               ; preds = %39
  %49 = load double, ptr %8, align 8, !tbaa !29
  %50 = call nsz double @llvm.fabs.f64(double %49)
  %51 = call nsz double @llvm.sqrt.f64(double %50)
  store double %51, ptr %8, align 8, !tbaa !29
  %52 = load ptr, ptr %5, align 8, !tbaa !19
  %53 = icmp ne ptr %52, null
  br i1 %53, label %54, label %56

54:                                               ; preds = %48
  %55 = load i32, ptr %7, align 4, !tbaa !4
  store i32 %55, ptr %6, align 4, !tbaa !4
  br label %56

56:                                               ; preds = %54, %48
  call void @llvm.lifetime.start.p0(i64 4, ptr %12) #10
  store i32 0, ptr %12, align 4, !tbaa !4
  br label %57

57:                                               ; preds = %89, %56
  %58 = load i32, ptr %12, align 4, !tbaa !4
  %59 = load i32, ptr %7, align 4, !tbaa !4
  %60 = icmp slt i32 %58, %59
  br i1 %60, label %62, label %61

61:                                               ; preds = %57
  store i32 2, ptr %11, align 4
  call void @llvm.lifetime.end.p0(i64 4, ptr %12) #10
  br label %92

62:                                               ; preds = %57
  call void @llvm.lifetime.start.p0(i64 8, ptr %13) #10
  %63 = load i32, ptr %12, align 4, !tbaa !4
  %64 = sitofp i32 %63 to double
  %65 = load double, ptr %9, align 8, !tbaa !29
  %66 = fadd nsz double %64, %65
  %67 = fmul nsz double 0x3FF921FB54442D18, %66
  %68 = load i32, ptr %7, align 4, !tbaa !4
  %69 = sitofp i32 %68 to double
  %70 = fdiv nsz double %67, %69
  store double %70, ptr %13, align 8, !tbaa !29
  %71 = load ptr, ptr %4, align 8, !tbaa !17
  %72 = getelementptr inbounds nuw %struct.AVTXContext, ptr %71, i32 0, i32 3
  %73 = load ptr, ptr %72, align 8, !tbaa !31
  %74 = load i32, ptr %6, align 4, !tbaa !4
  %75 = load i32, ptr %12, align 4, !tbaa !4
  %76 = add nsw i32 %74, %75
  %77 = sext i32 %76 to i64
  %78 = getelementptr inbounds %struct.AVComplexDouble, ptr %73, i64 %77
  %79 = getelementptr inbounds nuw %struct.AVComplexDouble, ptr %14, i32 0, i32 0
  %80 = load double, ptr %13, align 8, !tbaa !29
  %81 = call nsz double @llvm.cos.f64(double %80)
  %82 = load double, ptr %8, align 8, !tbaa !29
  %83 = fmul nsz double %81, %82
  store double %83, ptr %79, align 8, !tbaa !32
  %84 = getelementptr inbounds nuw %struct.AVComplexDouble, ptr %14, i32 0, i32 1
  %85 = load double, ptr %13, align 8, !tbaa !29
  %86 = call nsz double @llvm.sin.f64(double %85)
  %87 = load double, ptr %8, align 8, !tbaa !29
  %88 = fmul nsz double %86, %87
  store double %88, ptr %84, align 8, !tbaa !34
  call void @llvm.memcpy.p0.p0.i64(ptr align 8 %78, ptr align 8 %14, i64 16, i1 false), !tbaa.struct !35
  call void @llvm.lifetime.end.p0(i64 8, ptr %13) #10
  br label %89

89:                                               ; preds = %62
  %90 = load i32, ptr %12, align 4, !tbaa !4
  %91 = add nsw i32 %90, 1
  store i32 %91, ptr %12, align 4, !tbaa !4
  br label %57, !llvm.loop !36

92:                                               ; preds = %61
  %93 = load ptr, ptr %5, align 8, !tbaa !19
  %94 = icmp ne ptr %93, null
  br i1 %94, label %95, label %124

95:                                               ; preds = %92
  call void @llvm.lifetime.start.p0(i64 4, ptr %15) #10
  store i32 0, ptr %15, align 4, !tbaa !4
  br label %96

96:                                               ; preds = %120, %95
  %97 = load i32, ptr %15, align 4, !tbaa !4
  %98 = load i32, ptr %7, align 4, !tbaa !4
  %99 = icmp slt i32 %97, %98
  br i1 %99, label %101, label %100

100:                                              ; preds = %96
  store i32 5, ptr %11, align 4
  call void @llvm.lifetime.end.p0(i64 4, ptr %15) #10
  br label %123

101:                                              ; preds = %96
  %102 = load ptr, ptr %4, align 8, !tbaa !17
  %103 = getelementptr inbounds nuw %struct.AVTXContext, ptr %102, i32 0, i32 3
  %104 = load ptr, ptr %103, align 8, !tbaa !31
  %105 = load i32, ptr %15, align 4, !tbaa !4
  %106 = sext i32 %105 to i64
  %107 = getelementptr inbounds %struct.AVComplexDouble, ptr %104, i64 %106
  %108 = load ptr, ptr %4, align 8, !tbaa !17
  %109 = getelementptr inbounds nuw %struct.AVTXContext, ptr %108, i32 0, i32 3
  %110 = load ptr, ptr %109, align 8, !tbaa !31
  %111 = load i32, ptr %7, align 4, !tbaa !4
  %112 = load ptr, ptr %5, align 8, !tbaa !19
  %113 = load i32, ptr %15, align 4, !tbaa !4
  %114 = sext i32 %113 to i64
  %115 = getelementptr inbounds i32, ptr %112, i64 %114
  %116 = load i32, ptr %115, align 4, !tbaa !4
  %117 = add nsw i32 %111, %116
  %118 = sext i32 %117 to i64
  %119 = getelementptr inbounds %struct.AVComplexDouble, ptr %110, i64 %118
  call void @llvm.memcpy.p0.p0.i64(ptr align 8 %107, ptr align 8 %119, i64 16, i1 false), !tbaa.struct !35
  br label %120

120:                                              ; preds = %101
  %121 = load i32, ptr %15, align 4, !tbaa !4
  %122 = add nsw i32 %121, 1
  store i32 %122, ptr %15, align 4, !tbaa !4
  br label %96, !llvm.loop !37

123:                                              ; preds = %100
  br label %124

124:                                              ; preds = %123, %92
  store i32 0, ptr %3, align 4
  store i32 1, ptr %11, align 4
  br label %125

125:                                              ; preds = %124, %47
  call void @llvm.lifetime.end.p0(i64 8, ptr %10) #10
  call void @llvm.lifetime.end.p0(i64 8, ptr %9) #10
  call void @llvm.lifetime.end.p0(i64 8, ptr %8) #10
  call void @llvm.lifetime.end.p0(i64 4, ptr %7) #10
  call void @llvm.lifetime.end.p0(i64 4, ptr %6) #10
  %126 = load i32, ptr %3, align 4
  ret i32 %126
}