; Function Attrs: nounwind uwtable
define range(i32 -12, 1) i32 @ff_tx_mdct_gen_exp_double(ptr noundef captures(none) initializes((16, 24)) %0, ptr noundef readonly captures(address_is_null) %1) local_unnamed_addr #3 {
  %3 = load i32, ptr %0, align 8, !tbaa !16
  %4 = ashr i32 %3, 1
  %5 = getelementptr inbounds nuw i8, ptr %0, i64 144
  %6 = load double, ptr %5, align 8, !tbaa !25
  %7 = fcmp nsz olt double %6, 0.000000e+00
  %8 = sitofp i32 %4 to double
  %9 = fadd nsz double %8, 1.250000e-01
  %10 = select i1 %7, double %9, double 1.250000e-01
  %.not.not = icmp eq ptr %1, null
  %11 = and i32 %3, -2
  %12 = select i1 %.not.not, i32 %4, i32 %11
  %13 = sext i32 %12 to i64
  %14 = tail call ptr @av_malloc_array(i64 noundef %13, i64 noundef 16) #16
  %15 = getelementptr inbounds nuw i8, ptr %0, i64 16
  store ptr %14, ptr %15, align 8, !tbaa !26
  %.not40 = icmp eq ptr %14, null
  br i1 %.not40, label %.loopexit, label %16

16:                                               ; preds = %2
  %17 = tail call nsz double @llvm.fabs.f64(double %6)
  %18 = tail call nsz double @llvm.sqrt.f64(double %17)
  %19 = icmp sgt i32 %4, 0
  br i1 %19, label %.lr.ph.preheader, label %.loopexit

.lr.ph.preheader:                                 ; preds = %16
  %20 = zext nneg i32 %4 to i64
  %21 = select i1 %.not.not, i64 0, i64 %20
  %wide.trip.count = zext nneg i32 %4 to i64
  %invariant.gep = getelementptr inbounds nuw %struct.AVComplexDouble, ptr %14, i64 %21
  br label %.lr.ph

._crit_edge:                                      ; preds = %.lr.ph
  br i1 %.not.not, label %.loopexit, label %.lr.ph43.preheader

.lr.ph43.preheader:                               ; preds = %._crit_edge
  %wide.trip.count48 = zext nneg i32 %4 to i64
  br label %.lr.ph43

.lr.ph:                                           ; preds = %.lr.ph.preheader, %.lr.ph
  %indvars.iv = phi i64 [ 0, %.lr.ph.preheader ], [ %indvars.iv.next, %.lr.ph ]
  %22 = trunc nuw nsw i64 %indvars.iv to i32
  %23 = uitofp nneg i32 %22 to double
  %24 = fadd nsz double %10, %23
  %25 = fmul nsz double %24, 0x3FF921FB54442D18
  %26 = fdiv nsz double %25, %8
  %gep = getelementptr inbounds nuw %struct.AVComplexDouble, ptr %invariant.gep, i64 %indvars.iv
  %27 = tail call nsz double @llvm.cos.f64(double %26)
  %28 = fmul nsz double %18, %27
  %29 = tail call nsz double @llvm.sin.f64(double %26)
  %30 = fmul nsz double %18, %29
  store double %28, ptr %gep, align 8, !tbaa !27
  %.sroa.2.0..sroa_idx = getelementptr inbounds nuw i8, ptr %gep, i64 8
  store double %30, ptr %.sroa.2.0..sroa_idx, align 8, !tbaa !27
  %indvars.iv.next = add nuw nsw i64 %indvars.iv, 1
  %exitcond.not = icmp eq i64 %indvars.iv.next, %wide.trip.count
  br i1 %exitcond.not, label %._crit_edge, label %.lr.ph, !llvm.loop !28

.lr.ph43:                                         ; preds = %.lr.ph43.preheader, %.lr.ph43
  %indvars.iv45 = phi i64 [ 0, %.lr.ph43.preheader ], [ %indvars.iv.next46, %.lr.ph43 ]
  %31 = load ptr, ptr %15, align 8, !tbaa !26
  %32 = getelementptr inbounds nuw %struct.AVComplexDouble, ptr %31, i64 %indvars.iv45
  %33 = getelementptr inbounds nuw i32, ptr %1, i64 %indvars.iv45
  %34 = load i32, ptr %33, align 4, !tbaa !10
  %35 = add nsw i32 %34, %4
  %36 = sext i32 %35 to i64
  %37 = getelementptr inbounds %struct.AVComplexDouble, ptr %31, i64 %36
  tail call void @llvm.memcpy.p0.p0.i64(ptr noundef nonnull align 8 dereferenceable(16) %32, ptr noundef nonnull align 8 dereferenceable(16) %37, i64 16, i1 false), !tbaa.struct !29
  %indvars.iv.next46 = add nuw nsw i64 %indvars.iv45, 1
  %exitcond49.not = icmp eq i64 %indvars.iv.next46, %wide.trip.count48
  br i1 %exitcond49.not, label %.loopexit, label %.lr.ph43, !llvm.loop !30

.loopexit:                                        ; preds = %.lr.ph43, %16, %._crit_edge, %2
  %.035 = phi i32 [ -12, %2 ], [ 0, %._crit_edge ], [ 0, %16 ], [ 0, %.lr.ph43 ]
  ret i32 %.035
}